target datalayout = "e-m:e-p270:32:32-p271:32:32-p272:64:64-i64:64-i128:128-f80:128-n8:16:32:64-S128"
target triple = "x86_64-pc-linux-gnu"

%struct.gmx_ana_selvalue_t = type { i32, i32, %union.anon, i32 }
%union.anon = type { ptr }
%struct.methoddata_permute = type { %struct.gmx_ana_pos_t, i32, ptr, ptr }
%struct.gmx_ana_pos_t = type <{ ptr, ptr, ptr, %struct.gmx_ana_indexmap_t, i32, [4 x i8] }>
%struct.gmx_ana_indexmap_t = type { i32, ptr, ptr, %struct.t_blocka, ptr, %struct.t_blocka, i8 }
%struct.t_blocka = type { i32, ptr, i32, ptr, i32, i32 }

; Function Attrs: mustprogress nounwind uwtable
define linkonce_odr noundef i32 @_ZNK13gmx_ana_pos_t5countEv(ptr noundef nonnull align 8 dereferenceable(148) %0) #7 comdat align 2 {
  %2 = alloca ptr, align 8
  store ptr %0, ptr %2, align 8, !tbaa !47
  %3 = load ptr, ptr %2, align 8
  %4 = getelementptr inbounds nuw %struct.gmx_ana_pos_t, ptr %3, i32 0, i32 3
  %5 = getelementptr inbounds nuw %struct.gmx_ana_indexmap_t, ptr %4, i32 0, i32 3
  %6 = getelementptr inbounds nuw %struct.t_blocka, ptr %5, i32 0, i32 0
  %7 = load i32, ptr %6, align 8, !tbaa !52
  ret i32 %7
}

; Function Attrs: mustprogress uwtable
define internal void @_ZL19init_output_permutePK10gmx_mtop_tP18gmx_ana_selvalue_tPv(ptr noundef %0, ptr noundef %1, ptr noundef %2) #0 {
  %4 = alloca ptr, align 8
  %5 = alloca ptr, align 8
  %6 = alloca ptr, align 8
  %7 = alloca ptr, align 8
  %8 = alloca i32, align 4
  %9 = alloca i32, align 4
  %10 = alloca i32, align 4
  store ptr %0, ptr %4, align 8, !tbaa !25
  store ptr %1, ptr %5, align 8, !tbaa !36
  store ptr %2, ptr %6, align 8, !tbaa !27
  call void @llvm.lifetime.start.p0(i64 8, ptr %7) #18
  %11 = load ptr, ptr %6, align 8, !tbaa !27
  store ptr %11, ptr %7, align 8, !tbaa !11
  call void @llvm.lifetime.start.p0(i64 4, ptr %8) #18
  call void @llvm.lifetime.start.p0(i64 4, ptr %9) #18
  call void @llvm.lifetime.start.p0(i64 4, ptr %10) #18
  %12 = load ptr, ptr %7, align 8, !tbaa !11
  %13 = getelementptr inbounds nuw %struct.methoddata_permute, ptr %12, i32 0, i32 0
  %14 = getelementptr inbounds nuw %struct.gmx_ana_pos_t, ptr %13, i32 0, i32 3
  %15 = getelementptr inbounds nuw %struct.gmx_ana_indexmap_t, ptr %14, i32 0, i32 0
  %16 = load i32, ptr %15, align 8, !tbaa !38
  %17 = load ptr, ptr %5, align 8, !tbaa !36
  %18 = getelementptr inbounds nuw %struct.gmx_ana_selvalue_t, ptr %17, i32 0, i32 2
  %19 = load ptr, ptr %18, align 8, !tbaa !24
  %20 = getelementptr inbounds nuw %struct.gmx_ana_pos_t, ptr %19, i32 0, i32 3
  %21 = getelementptr inbounds nuw %struct.gmx_ana_indexmap_t, ptr %20, i32 0, i32 0
  store i32 %16, ptr %21, align 8, !tbaa !39
  %22 = load ptr, ptr %5, align 8, !tbaa !36
  %23 = getelementptr inbounds nuw %struct.gmx_ana_selvalue_t, ptr %22, i32 0, i32 2
  %24 = load ptr, ptr %23, align 8, !tbaa !24
  %25 = load ptr, ptr %7, align 8, !tbaa !11
  %26 = getelementptr inbounds nuw %struct.methoddata_permute, ptr %25, i32 0, i32 0
  %27 = call noundef i32 @_ZNK13gmx_ana_pos_t5countEv(ptr noundef nonnull align 8 dereferenceable(148) %26)
  %28 = load ptr, ptr %7, align 8, !tbaa !11
  %29 = getelementptr inbounds nuw %struct.methoddata_permute, ptr %28, i32 0, i32 0
  %30 = getelementptr inbounds nuw %struct.gmx_ana_pos_t, ptr %29, i32 0, i32 3
  %31 = getelementptr inbounds nuw %struct.gmx_ana_indexmap_t, ptr %30, i32 0, i32 5
  %32 = getelementptr inbounds nuw %struct.t_blocka, ptr %31, i32 0, i32 2
  %33 = load i32, ptr %32, align 8, !tbaa !40
  %34 = load ptr, ptr %7, align 8, !tbaa !11
  %35 = getelementptr inbounds nuw %struct.methoddata_permute, ptr %34, i32 0, i32 0
  %36 = getelementptr inbounds nuw %struct.gmx_ana_pos_t, ptr %35, i32 0, i32 1
  %37 = load ptr, ptr %36, align 8, !tbaa !41
  %38 = icmp ne ptr %37, null
  %39 = load ptr, ptr %7, align 8, !tbaa !11
  %40 = getelementptr inbounds nuw %struct.methoddata_permute, ptr %39, i32 0, i32 0
  %41 = getelementptr inbounds nuw %struct.gmx_ana_pos_t, ptr %40, i32 0, i32 2
  %42 = load ptr, ptr %41, align 8, !tbaa !42
  %43 = icmp ne ptr %42, null
  call void @_Z30gmx_ana_pos_reserve_for_appendP13gmx_ana_pos_tiibb(ptr noundef %24, i32 noundef %27, i32 noundef %33, i1 noundef zeroext %38, i1 noundef zeroext %43)
  %44 = load ptr, ptr %5, align 8, !tbaa !36
  %45 = getelementptr inbounds nuw %struct.gmx_ana_selvalue_t, ptr %44, i32 0, i32 2
  %46 = load ptr, ptr %45, align 8, !tbaa !24
  call void @_Z22gmx_ana_pos_empty_initP13gmx_ana_pos_t(ptr noundef %46)
  store i32 0, ptr %8, align 4, !tbaa !4
  br label %47

47:                                               ; preds = %80, %3
  %48 = load i32, ptr %8, align 4, !tbaa !4
  %49 = load ptr, ptr %7, align 8, !tbaa !11
  %50 = getelementptr inbounds nuw %struct.methoddata_permute, ptr %49, i32 0, i32 0
  %51 = call noundef i32 @_ZNK13gmx_ana_pos_t5countEv(ptr noundef nonnull align 8 dereferenceable(148) %50)
  %52 = icmp slt i32 %48, %51
  br i1 %52, label %53, label %86

53:                                               ; preds = %47
  store i32 0, ptr %9, align 4, !tbaa !4
  br label %54

54:                                               ; preds = %76, %53
  %55 = load i32, ptr %9, align 4, !tbaa !4
  %56 = load ptr, ptr %7, align 8, !tbaa !11
  %57 = getelementptr inbounds nuw %struct.methoddata_permute, ptr %56, i32 0, i32 1
  %58 = load i32, ptr %57, align 8, !tbaa !13
  %59 = icmp slt i32 %55, %58
  br i1 %59, label %60, label %79

60:                                               ; preds = %54
  %61 = load i32, ptr %8, align 4, !tbaa !4
  %62 = load ptr, ptr %7, align 8, !tbaa !11
  %63 = getelementptr inbounds nuw %struct.methoddata_permute, ptr %62, i32 0, i32 3
  %64 = load ptr, ptr %63, align 8, !tbaa !23
  %65 = load i32, ptr %9, align 4, !tbaa !4
  %66 = sext i32 %65 to i64
  %67 = getelementptr inbounds i32, ptr %64, i64 %66
  %68 = load i32, ptr %67, align 4, !tbaa !4
  %69 = add nsw i32 %61, %68
  store i32 %69, ptr %10, align 4, !tbaa !4
  %70 = load ptr, ptr %5, align 8, !tbaa !36
  %71 = getelementptr inbounds nuw %struct.gmx_ana_selvalue_t, ptr %70, i32 0, i32 2
  %72 = load ptr, ptr %71, align 8, !tbaa !24
  %73 = load ptr, ptr %7, align 8, !tbaa !11
  %74 = getelementptr inbounds nuw %struct.methoddata_permute, ptr %73, i32 0, i32 0
  %75 = load i32, ptr %10, align 4, !tbaa !4
  call void @_Z23gmx_ana_pos_append_initP13gmx_ana_pos_tS0_i(ptr noundef %72, ptr noundef %74, i32 noundef %75)
  br label %76

76:                                               ; preds = %60
  %77 = load i32, ptr %9, align 4, !tbaa !4
  %78 = add nsw i32 %77, 1
  store i32 %78, ptr %9, align 4, !tbaa !4
  br label %54, !llvm.loop !43

79:                                               ; preds = %54
  br label %80

80:                                               ; preds = %79
  %81 = load ptr, ptr %7, align 8, !tbaa !11
  %82 = getelementptr inbounds nuw %struct.methoddata_permute, ptr %81, i32 0, i32 1
  %83 = load i32, ptr %82, align 8, !tbaa !13
  %84 = load i32, ptr %8, align 4, !tbaa !4
  %85 = add nsw i32 %84, %83
  store i32 %85, ptr %8, align 4, !tbaa !4
  br label %47, !llvm.loop !44

86:                                               ; preds = %47
  call void @llvm.lifetime.end.p0(i64 4, ptr %10) #18
  call void @llvm.lifetime.end.p0(i64 4, ptr %9) #18
  call void @llvm.lifetime.end.p0(i64 4, ptr %8) #18
  call void @llvm.lifetime.end.p0(i64 8, ptr %7) #18
  ret void
}