; Function Attrs: mustprogress uwtable
define internal void @_ZL19init_output_permutePK10gmx_mtop_tP18gmx_ana_selvalue_tPv(ptr readnone captures(none) %0, ptr noundef readonly captures(none) %1, ptr noundef %2) #0 {
  %4 = getelementptr inbounds nuw i8, ptr %2, i64 24
  %5 = load i32, ptr %4, align 8, !tbaa !38
  %6 = getelementptr inbounds nuw i8, ptr %1, i64 8
  %7 = load ptr, ptr %6, align 8, !tbaa !17
  %8 = getelementptr inbounds nuw i8, ptr %7, i64 24
  store i32 %5, ptr %8, align 8, !tbaa !39
  %9 = load ptr, ptr %6, align 8, !tbaa !17
  %10 = getelementptr inbounds nuw i8, ptr %2, i64 48
  %11 = load i32, ptr %10, align 8, !tbaa !24
  %12 = getelementptr inbounds nuw i8, ptr %2, i64 112
  %13 = load i32, ptr %12, align 8, !tbaa !40
  %14 = getelementptr inbounds nuw i8, ptr %2, i64 8
  %15 = load ptr, ptr %14, align 8, !tbaa !41
  %16 = icmp ne ptr %15, null
  %17 = getelementptr inbounds nuw i8, ptr %2, i64 16
  %18 = load ptr, ptr %17, align 8, !tbaa !42
  %19 = icmp ne ptr %18, null
  tail call void @_Z30gmx_ana_pos_reserve_for_appendP13gmx_ana_pos_tiibb(ptr noundef %9, i32 noundef %11, i32 noundef %13, i1 noundef zeroext %16, i1 noundef zeroext %19)
  %20 = load ptr, ptr %6, align 8, !tbaa !17
  tail call void @_Z22gmx_ana_pos_empty_initP13gmx_ana_pos_t(ptr noundef %20)
  %21 = load i32, ptr %10, align 8, !tbaa !24
  %22 = icmp sgt i32 %21, 0
  br i1 %22, label %.preheader.lr.ph, label %._crit_edge25

.preheader.lr.ph:                                 ; preds = %3
  %23 = getelementptr inbounds nuw i8, ptr %2, i64 152
  %24 = getelementptr inbounds nuw i8, ptr %2, i64 168
  %25 = load i32, ptr %23, align 8, !tbaa !4
  %26 = icmp sgt i32 %25, 0
  br i1 %26, label %.preheader, label %._crit_edge25

.preheader:                                       ; preds = %.preheader.lr.ph, %._crit_edge
  %27 = phi i32 [ %38, %._crit_edge ], [ %21, %.preheader.lr.ph ]
  %28 = phi i32 [ %39, %._crit_edge ], [ %25, %.preheader.lr.ph ]
  %.024 = phi i32 [ %40, %._crit_edge ], [ 0, %.preheader.lr.ph ]
  %29 = icmp sgt i32 %28, 0
  br i1 %29, label %.lr.ph, label %._crit_edge

.lr.ph:                                           ; preds = %.preheader, %.lr.ph
  %indvars.iv = phi i64 [ %indvars.iv.next, %.lr.ph ], [ 0, %.preheader ]
  %30 = load ptr, ptr %24, align 8, !tbaa !43
  %31 = getelementptr inbounds nuw i32, ptr %30, i64 %indvars.iv
  %32 = load i32, ptr %31, align 4, !tbaa !28
  %33 = add nsw i32 %32, %.024
  %34 = load ptr, ptr %6, align 8, !tbaa !17
  tail call void @_Z23gmx_ana_pos_append_initP13gmx_ana_pos_tS0_i(ptr noundef %34, ptr noundef nonnull %2, i32 noundef %33)
  %indvars.iv.next = add nuw nsw i64 %indvars.iv, 1
  %35 = load i32, ptr %23, align 8, !tbaa !4
  %36 = sext i32 %35 to i64
  %37 = icmp slt i64 %indvars.iv.next, %36
  br i1 %37, label %.lr.ph, label %._crit_edge.loopexit, !llvm.loop !44

._crit_edge.loopexit:                             ; preds = %.lr.ph
  %.pre = load i32, ptr %10, align 8, !tbaa !24
  br label %._crit_edge

._crit_edge:                                      ; preds = %._crit_edge.loopexit, %.preheader
  %38 = phi i32 [ %27, %.preheader ], [ %.pre, %._crit_edge.loopexit ]
  %39 = phi i32 [ %28, %.preheader ], [ %35, %._crit_edge.loopexit ]
  %40 = add nsw i32 %39, %.024
  %41 = icmp slt i32 %40, %38
  br i1 %41, label %.preheader, label %._crit_edge25, !llvm.loop !45

._crit_edge25:                                    ; preds = %._crit_edge, %.preheader.lr.ph, %3
  ret void
}